target datalayout = "e-m:e-p270:32:32-p271:32:32-p272:64:64-i64:64-i128:128-f80:128-n8:16:32:64-S128"
target triple = "x86_64-pc-linux-gnu"

%struct.gmx_ana_selmethod_t = type { ptr, i32, i32, i32, ptr, ptr, ptr, ptr, ptr, ptr, ptr, ptr, ptr, %struct.gmx_ana_selmethod_help_t }
%struct.gmx_ana_selmethod_help_t = type { ptr, ptr, i32, ptr }
%struct.t_register_method = type { ptr, ptr }

; Function Attrs: mustprogress nounwind uwtable
define linkonce_odr noundef i32 @_Z5asizeIK17t_register_methodLi40EEiRAT0__T_(ptr noundef nonnull align 8 dereferenceable(640) %0) #4 comdat {
  %2 = alloca ptr, align 8
  store ptr %0, ptr %2, align 8, !tbaa !88
  ret i32 40
}

; Function Attrs: mustprogress uwtable
define noundef i32 @_Z35gmx_ana_selmethod_register_defaultsPN3gmx26SelectionParserSymbolTableE(ptr noundef %0) #0 {
  %2 = alloca ptr, align 8
  %3 = alloca [40 x %struct.t_register_method], align 16
  %4 = alloca i32, align 4
  %5 = alloca i8, align 1
  %6 = alloca i32, align 4
  %7 = alloca ptr, align 8
  store ptr %0, ptr %2, align 8, !tbaa !4
  call void @llvm.lifetime.start.p0(i64 640, ptr %3) #15
  call void @llvm.memcpy.p0.p0.i64(ptr align 16 %3, ptr align 16 @__const._Z35gmx_ana_selmethod_register_defaultsPN3gmx26SelectionParserSymbolTableE.smtable_def, i64 640, i1 false)
  call void @llvm.lifetime.start.p0(i64 4, ptr %4) #15
  call void @llvm.lifetime.start.p0(i64 1, ptr %5) #15
  store i8 1, ptr %5, align 1, !tbaa !23
  call void @llvm.lifetime.start.p0(i64 4, ptr %6) #15
  store i32 0, ptr %6, align 4, !tbaa !37
  br label %8

8:                                                ; preds = %46, %1
  %9 = load i32, ptr %6, align 4, !tbaa !37
  %10 = call noundef i32 @_Z5asizeIK17t_register_methodLi40EEiRAT0__T_(ptr noundef nonnull align 8 dereferenceable(640) %3)
  %11 = icmp slt i32 %9, %10
  br i1 %11, label %13, label %12

12:                                               ; preds = %8
  call void @llvm.lifetime.end.p0(i64 4, ptr %6) #15
  br label %49

13:                                               ; preds = %8
  call void @llvm.lifetime.start.p0(i64 8, ptr %7) #15
  %14 = load i32, ptr %6, align 4, !tbaa !37
  %15 = sext i32 %14 to i64
  %16 = getelementptr inbounds [40 x %struct.t_register_method], ptr %3, i64 0, i64 %15
  %17 = getelementptr inbounds nuw %struct.t_register_method, ptr %16, i32 0, i32 1
  %18 = load ptr, ptr %17, align 8, !tbaa !84
  store ptr %18, ptr %7, align 8, !tbaa !11
  %19 = load i32, ptr %6, align 4, !tbaa !37
  %20 = sext i32 %19 to i64
  %21 = getelementptr inbounds [40 x %struct.t_register_method], ptr %3, i64 0, i64 %20
  %22 = getelementptr inbounds nuw %struct.t_register_method, ptr %21, i32 0, i32 0
  %23 = load ptr, ptr %22, align 16, !tbaa !86
  %24 = icmp eq ptr %23, null
  br i1 %24, label %25, label %32

25:                                               ; preds = %13
  %26 = load ptr, ptr %2, align 8, !tbaa !4
  %27 = load ptr, ptr %7, align 8, !tbaa !11
  %28 = getelementptr inbounds nuw %struct.gmx_ana_selmethod_t, ptr %27, i32 0, i32 0
  %29 = load ptr, ptr %28, align 8, !tbaa !32
  %30 = load ptr, ptr %7, align 8, !tbaa !11
  %31 = call noundef i32 @_Z26gmx_ana_selmethod_registerPN3gmx26SelectionParserSymbolTableEPKcP19gmx_ana_selmethod_t(ptr noundef %26, ptr noundef %29, ptr noundef %30)
  store i32 %31, ptr %4, align 4, !tbaa !37
  br label %41

32:                                               ; preds = %13
  %33 = load ptr, ptr %2, align 8, !tbaa !4
  %34 = load i32, ptr %6, align 4, !tbaa !37
  %35 = sext i32 %34 to i64
  %36 = getelementptr inbounds [40 x %struct.t_register_method], ptr %3, i64 0, i64 %35
  %37 = getelementptr inbounds nuw %struct.t_register_method, ptr %36, i32 0, i32 0
  %38 = load ptr, ptr %37, align 16, !tbaa !86
  %39 = load ptr, ptr %7, align 8, !tbaa !11
  %40 = call noundef i32 @_Z26gmx_ana_selmethod_registerPN3gmx26SelectionParserSymbolTableEPKcP19gmx_ana_selmethod_t(ptr noundef %33, ptr noundef %38, ptr noundef %39)
  store i32 %40, ptr %4, align 4, !tbaa !37
  br label %41

41:                                               ; preds = %32, %25
  %42 = load i32, ptr %4, align 4, !tbaa !37
  %43 = icmp ne i32 %42, 0
  br i1 %43, label %44, label %45

44:                                               ; preds = %41
  store i8 0, ptr %5, align 1, !tbaa !23
  br label %45

45:                                               ; preds = %44, %41
  call void @llvm.lifetime.end.p0(i64 8, ptr %7) #15
  br label %46

46:                                               ; preds = %45
  %47 = load i32, ptr %6, align 4, !tbaa !37
  %48 = add nsw i32 %47, 1
  store i32 %48, ptr %6, align 4, !tbaa !37
  br label %8, !llvm.loop !87

49:                                               ; preds = %12
  %50 = load i8, ptr %5, align 1, !tbaa !23, !range !25, !noundef !26
  %51 = trunc i8 %50 to i1
  %52 = select i1 %51, i32 0, i32 -1
  call void @llvm.lifetime.end.p0(i64 1, ptr %5) #15
  call void @llvm.lifetime.end.p0(i64 4, ptr %4) #15
  call void @llvm.lifetime.end.p0(i64 640, ptr %3) #15
  ret i32 %52
}